(S'apple'
p0
S'google'
p1
S'iphone'
p2
S'android'
p3
S'exchange'
p4
S'price'
p5
S'free'
p6
S'china'
p7
S'liquidation'
p8
S'phone'
p9
S'samsung'
p10
S'siri'
p11
S'mtgox'
p12
S'news'
p13
S'time'
p14
S'litecoin'
p15
S'currency'
p16
S'nexus'
p17
S'bank'
p18
S'reddit'
p19
S'money'
p20
S'sell'
p21
S'sandwich'
p22
S'cryptocurrency'
p23
S'files'
p24
S'thanks'
p25
S'live'
p26
S'cream'
p27
S'mining'
p28
S'store'
p29
S'court'
p30
S'technology'
p31
S'update'
p32
S'exchanges'
p33
S'wallet'
p34
S'using'
p35
S'dogecoin'
p36
S'guide'
p37
S'market'
p38
S'reserve'
p39
S'service'
p40
S'payment'
p41
S'bitstamp'
p42
S'digital'
p43
S'federal'
p44
S'spend'
p45
S'blockchain'
p46
S'szabo'
p47
S'love'
p48
S'liquidated'
p49
S'nick'
p50
S'nice'
p51
S'card'
p52
S'apps'
p53
S'people'
p54
S'coindesk'
p55
S'online'
p56
S'icecreamsandwich'
p57
S'gold'
p58
S'ipad'
p59
S'mins'
p60
S'icloud'
p61
S'btce'
p62
S'uprising'
p63
S'galaxy'
p64
S'battery'
p65
S'bankruptcy'
p66
S'dear'
p67
S'cnbc'
p68
S'tweet'
p69
S'life'
p70
S'shit'
p71
S'liquidate'
p72
S'name'
p73
S'million'
p74
S'author'
p75
S'miner'
p76
S'official'
p77
S'coins'
p78
S'fail'
p79
S'post'
p80
S'fuck'
p81
S'thank'
p82
S'profit'
p83
S'play'
p84
S'creator'
p85
S'users'
p86
S'customer'
p87
S'brasserietivoli'
p88
S'network'
p89
S'mine'
p90
S'profits'
p91
S'awesome'
p92
S'cryptsy'
p93
S'upgrade'
p94
S'doesn'
p95
S'blog'
p96
S'plans'
p97
S'banks'
p98
S'fucking'
p99
S'oudenbosch'
p100
S'looks'
p101
S'times'
p102
S'holland'
p103
S'operational'
p104
S'terminal'
p105
S'local'
p106
S'lost'
p107
S'worth'
p108
S'itunes'
p109
S'days'
p110
S'tech'
p111
S'amazon'
p112
S'power'
p113
S'sign'
p114
S'wait'
p115
S'pair'
p116
S'average'
p117
S'screen'
p118
S'help'
p119
S'twitter'
p120
S'reportedly'
p121
S'whitepaper'
p122
S'stop'
p123
S'virtual'
p124
S'bter'
p125
S'credit'
p126
S'galaxynexus'
p127
S'president'
p128
S'doge'
p129
S'ranging'
p130
S'security'
p131
S'skirting'
p132
S'wallets'
p133
S'yielding'
p134
S'check'
p135
S'opps'
p136
S'please'
p137
S'crackdown'
p138
S'mycelium'
p139
S'send'
p140
S'spanning'
p141
S'changed'
p142
S'hope'
p143
S'amazing'
p144
S'bitfinex'
p145
S'watch'
p146
S'current'
p147
S'future'
p148
S'sale'
p149
S'article'
p150
S'trader'
p151
S'linguistic'
p152
S'researchers'
p153
S'calls'
p154
S'hasn'
p155
S'plan'
p156
S'issues'
p157
S'video'
p158
S'business'
p159
S'rehabilitation'
p160
S'data'
p161
S'world'
p162
S'hate'
p163
S'projectcoin'
p164
S'feature'
p165
S'support'
p166
S'alerts'
p167
S'troubled'
p168
S'crypto'
p169
S'seriously'
p170
S'coinbase'
p171
S'blackberry'
p172
S'central'
p173
S'tries'
p174
S'reuters'
p175
S'accepting'
p176
S'facebook'
p177
S'camera'
p178
S'earn'
p179
S'doge_report'
p180
S'genius'
p181
S'value'
p182
S'payments'
p183
S'officially'
p184
S'jgarzik'
p185
S'paypal'
p186
S'change'
p187
S'product'
p188
S'didn'
p189
S'awards'
p190
S'version'
p191
S'dogec'
p192
S'services'
p193
S'annual'
p194
S'secret'
p195
S'look'
p196
S'game'
p197
S'private'
p198
S'satoshi'
p199
S'getting'
p200
S'book'
p201
S'protection'
p202
S'trading'
p203
S'address'
p204
S'sharing'
p205
S'bitaddress'
p206
S'guys'
p207
S'looking'
p208
S'kocherlakota'
p209
S'chinese'
p210
S'hours'
p211
S'accept'
p212
S'signal'
p213
S'sent'
p214
S'deals'
p215
S'giving'
p216
S'narayana'
p217
S'bought'
p218
S'taking'
p219
S'administration'
p220
S'transaction'
p221
S'restore'
p222
S'creditcard'
p223
S'minutes'
p224
S'bitcoinagile'
p225
S'electricity'
p226
S'replace'
p227
S'ebay'
p228
S'report'
p229
S'priceofdogecoin'
p230
S'thebitcoinnews'
p231
S'amsterdam'
p232
S'billion'
p233
S'half'
p234
S'rebuild'
p235
S'media'
p236
S'real'
p237
S'laundering'
p238
S'tower'
p239
S'eiffel'
p240
S'road'
p241
S'dollar'
p242
S'worst'
p243
S'social'
p244
S'hour'
p245
S'discoverbitcoin'
p246
S'paper'
p247
S'abandons'
p248
S'silk'
p249
S'available'
p250
S'damn'
p251
S'prices'
p252
S'bloombergnews'
p253
S'consumed'
p254
S'steve'
p255
S'nakamoto'
p256
S'doing'
p257
S'system'
p258
S'computer'
p259
S'bitcoinmoney'
p260
S'smart'
p261
S'documentary'
p262
S'software'
p263
S'street'
p264
S'tell'
p265
S'hold'
p266
S'word'
p267
S'india'
p268
S'unmasked'
p269
S'content'
p270
S'foundation'
p271
S'user'
p272
S'revival'
p273
S'rejects'
p274
S'bitundo'
p275
S'macbook'
p276
S'bitpay'
p277
S'save'
p278
S'denies'
p279
S'soon'
p280
S'deal'
p281
S'music'
p282
S'global'
p283
S'trouble'
p284
S'tokyo'
p285
S'platform'
p286
S'iphones'
p287
S'dark'
p288
S'experience'
p289
S'learn'
p290
S'plant'
p291
S'trade'
p292
S'actually'
p293
S'fees'
p294
S'build'
p295
S'quote'
p296
S'mobile'
p297
S'pretty'
p298
S'community'
p299
S'fundamentally'
p300
S'bradnews'
p301
S'journal'
p302
S'study'
p303
S'excellent'
p304
S'recovery'
p305
S'japan'
p306
S'seen'
p307
S'release'
p308
S'bookcase'
p309
S'website'
p310
S'commerce'
p311
S'survival'
p312
S'hunt'
p313
S'happy'
p314
S'quits'
p315
S'little'
p316
S'stuck'
p317
S'recover'
p318
S'middle'
p319
S'totally'
p320
S'start'
p321
S'sales'
p322
S'poor'
p323
S'month'
p324
S'design'
p325
S'search'
p326
S'launch'
p327
S'terrible'
p328
S'feel'
p329
S'heads'
p330
S'lion'
p331
S'else'
p332
S'btcfoundation'
p333
S'block'
p334
S'line'
p335
S'makes'
p336
S'decentralized'
p337
S'meet'
p338
S'stock'
p339
S'ipod'
p340
S'submitted'
p341
S'taps'
p342
S'based'
p343
S'wall'
p344
S'retrogaming'
p345
S'blackcoin'
p346
S'biggest'
p347
S'piece'
p348
S'sorry'
p349
S'updates'
p350
S'warns'
p351
S'bloombergway'
p352
S'purchase'
p353
S'btcusd'
p354
S'features'
p355
S'allegedly'
p356
S'result'
p357
S'games'
p358
S'conference'
p359
S'chrome'
p360
S'split'
p361
S'spread'
p362
S'hear'
p363
S'goes'
p364
S'loving'
p365
S'entrepreneur'
p366
S'unlock'
p367
S'engineer'
p368
S'gotta'
p369
S'btcnewsbot'
p370
S'black'
p371
S'indicted'
p372
S'jobs'
p373
S'called'
p374
S'former'
p375
S'cash'
p376
S'running'
p377
S'costs'
p378
S'announcement'
p379
S'disappointed'
p380
S'rising'
p381
S'currencies'
p382
S'week'
p383
S'presentation'
p384
S'list'
p385
S'fiverr'
p386
S'finally'
p387
S'company'
p388
S'glad'
p389
S'playing'
p390
S'hell'
p391
S'hard'
p392
S'major'
p393
S'leading'
p394
S'failed'
p395
S'banking'
p396
S'bars'
p397
S'french'
p398
S'stolen'
p399
S'keys'
p400
S'questions'
p401
S'homeland'
p402
S'excited'
p403
S'lacking'
p404
S'sprint'
p405
S'steve_hanke'
p406
S'fast'
p407
S'collapsed'
p408
S'warning'
p409
S'prepares'
p410
S'products'
p411
S'cloud'
p412
S'nejbye'
p413
S'updating'
p414
S'apparently'
p415
S'fixed'
p416
S'missing'
p417
S'email'
p418
S'finance'
p419
S'http'
p420
S'adoption'
p421
S'home'
p422
S'recognition'
p423
S'wish'
p424
S'placed'
p425
S'reported'
p426
S'voice'
p427
S'type'
p428
S'coinkite'
p429
S'silver'
p430
S'primary'
p431
S'featured'
p432
S'talking'
p433
S'investment'
p434
S'sound'
p435
S'contact'
p436
S'transactions'
p437
S'claims'
p438
S'coin'
p439
S'professor'
p440
S'trust'
p441
S'speak'
p442
S'monetize'
p443
S'buysellbitco'
p444
S'publicly'
p445
S'updown'
p446
S'petersurda'
p447
S'shamir'
p448
S'dollars'
p449
S'dealbook'
p450
S'inside'
p451
S'welcome'
p452
S'weekend'
p453
S'charge'
p454
S'smartphone'
p455
S'cryptocurrencies'
p456
S'btcgbp'
p457
S'growing'
p458
S'hearn'
p459
S'discussion'
p460
S'talk'
p461
S'avid'
p462
S'offers'
p463
S'mail'
p464
S'instantly'
p465
S'yeah'
p466
S'rational'
p467
S'rebuilding'
p468
S'cryptomoms'
p469
S'friend'
p470
S'shop'
p471
S'icecream'
p472
S'watching'
p473
S'anti'
p474
S'shopping'
p475
S'japanese'
p476
S'pull'
p477
S'gone'
p478
S'moves'
p479
S'storage'
p480
S'gambling'
p481
S'includes'
p482
S'imessage'
p483
S'markets'
p484
S'history'
p485
S'libertarian'
p486
S'coming'
p487
S'socialmediathatpays'
p488
S'late'
p489
S'encouraging'
p490
S'faucet'
p491
S'fucked'
p492
S'ecommerce'
p493
S'redditbtc'
p494
S'built'
p495
S'theft'
p496
S'close'
p497
S'expert'
p498
S'event'
p499
S'sweet'
p500
S'yesterday'
p501
S'moment'
p502
S'recent'
p503
S'chronicles'
p504
S'contacts'
p505
S'ronpaul'
p506
S'step'
p507
S'wanna'
p508
S'forward'
p509
S'link'
p510
S'info'
p511
S'reservation'
p512
S'annoyed'
p513
S'results'
p514
S'access'
p515
S'women'
p516
S'announcing'
p517
S'control'
p518
S'panic'
p519
S'including'
p520
S'crash'
p521
S'investor'
p522
S'improvements'
p523
S'quality'
p524
S'able'
p525
S'agreed'
p526
S'mike'
p527
S'multi'
p528
S'demo'
p529
S'infinite'
p530
S'usage'
p531
S'betting'
p532
S'cashclamber'
p533
S'avoid'
p534
S'transfer'
p535
S'victoriavaneyk'
p536
S'solution'
p537
S'handout'
p538
S'thepriceofbtc'
p539
S'maxcoin'
p540
S'items'
p541
S'reports'
p542
S'fantastic'
p543
S'total'
p544
S'call'
p545
S'rights'
p546
S'easier'
p547
S'coffee'
p548
S'merchants'
p549
S'rates'
p550
S'forensic'
p551
S'rate'
p552
S'relayed'
p553
S'ebook'
p554
S'peers'
p555
S'saying'
p556
S'busy'
p557
S'steal'
p558
S'east'
p559
S'cont'
p560
S'played'
p561
S'cant'
p562
S'mentioning'
p563
S'gift'
p564
S'dead'
p565
S'peer'
p566
S'civil'
p567
S'lies'
p568
S'tesla'
p569
S'voluntarism'
p570
S'none'
p571
S'vegas'
p572
S'cool'
p573
S'team'
p574
S'quick'
p575
S'cost'
p576
S'international'
p577
S'water'
p578
S'slow'
p579
S'extra'
p580
S'heard'
p581
S'remember'
p582
S'blocked'
p583
S'chaining'
p584
S'starts'
p585
S'coin_artist'
p586
S'lmao'
p587
S'efficient'
p588
S'upgrading'
p589
S'multibit'
p590
S'paid'
p591
S'beta'
p592
S'america'
p593
S'campbx'
p594
S'crap'
p595
S'aggressive'
p596
S'crashing'
p597
S'stupid'
p598
S'outside'
p599
S'markkarpeles'
p600
S'kclrcir'
p601
S'west'
p602
S'status'
p603
S'drain'
p604
S'itouch'
p605
S'bitcoinanomaly'
p606
S'read'
p607
S'accepted'
p608
S'happened'
p609
S'lands'
p610
S'trying'
p611
S'hire'
p612
S'websites'
p613
S'revealed'
p614
S'debit'
p615
S'heralds'
p616
S'hacked'
p617
S'learned'
p618
S'allows'
p619
S'options'
p620
S'family'
p621
S'flaws'
p622
S'sucks'
p623
S'share'
p624
S'rumor'
p625
S'taariqlewis'
p626
S'idea'
p627
S'btcecom'
p628
S'connect'
p629
S'funding'
p630
S'research'
p631
S'thread'
p632
S'miss'
p633
S'story'
p634
S'option'
p635
S'believe'
p636
S'syncing'
p637
S'waiting'
p638
S'express'
p639
S'restart'
p640
S'intelligence'
p641
S'retweet'
p642
S'project'
p643
S'latin'
p644
S'keyboard'
p645
S'prospects'
p646
S'secrets'
p647
S'replaced'
p648
S'properly'
p649
S'survey'
p650
S'freebitcoin'
p651
S'gonna'
p652
S'customers'
p653
S'cryptotrade'
p654
S'johnehenderson'
p655
S'seeing'
p656
S'question'
p657
S'vendors'
p658
S'youtube'
p659
S'shanghai'
p660
S'manipulated'
p661
S'kingspol_econ'
p662
S'capital'
p663
S'expresses'
p664
S'following'
p665
S'stevejobs'
p666
S'butler'
p667
S'account'
p668
S'challenge'
p669
S'drops'
p670
S'located'
p671
S'light'
p672
S'altcoin'
p673
S'move'
p674
S'perfect'
p675
S'salesman'
p676
S'announces'
p677
S'retail'
p678
S'management'
p679
S'fair'
p680
S'innovate'
p681
S'request'
p682
S'text'
p683
S'unable'
p684
S'means'
p685
S'beam'
p686
S'interview'
p687
S'april'
p688
S'addition'
p689
S'anomaly'
p690
S'verizon'
p691
S'defunct'
p692
S'minneapolis'
p693
S'site'
p694
S'center'
p695
S'stores'
p696
S'skill'
p697
S'increased'
p698
S'government'
p699
S'page'
p700
S'searching'
p701
S'growth'
p702
S'schedule'
p703
S'petertoddbtc'
p704
S'brand'
p705
S'rumors'
p706
S'buysellbitcoinr'
p707
S'yellow'
p708
S'risk'
p709
S'rise'
p710
S'jacob'
p711
S'bringing'
p712
S'convenience'
p713
S'tired'
p714
S'thebitcoinwife'
p715
S'hide'
p716
S'told'
p717
S'cointalks'
p718
S'economics'
p719
S'secure'
p720
S'compra'
p721
S'recommend'
p722
S'machine'
p723
S'offshore'
p724
S'haven'
p725
S'bitcoinmarket'
p726
S'replacing'
p727
S'office'
p728
S'mastercoin'
p729
S'fidelity'
p730
S'personal'
p731
S'coinfloor'
p732
S'safe'
p733
S'break'
p734
S'debut'
p735
S'newport'
p736
S'financial'
p737
S'companies'
p738
S'arrests'
p739
S'millions'
p740
S'sahm'
p741
S'messages'
p742
S'heck'
p743
S'vertcoin'
p744
S'decentralised'
p745
S'john'
p746
S'tool'
p747
S'abandoning'
p748
S'silly'
p749
S'mind'
p750
S'blue'
p751
S'definitely'
p752
S'consumer'
p753
S'worldcoin'
p754
S'explain'
p755
S'wasting'
p756
S'photo'
p757
S'folder'
p758
S'volatility'
p759
S'started'
p760
S'downgrade'
p761
S'improve'
p762
S'suggested'
p763
S'fault'
p764
S'tone'
p765
S'height'
p766
S'btcfoun'
p767
S'easy'
p768
S'forum'
p769
S'launches'
p770
S'property'
p771
S'experts'
p772
S'mouse'
p773
S'strifeblog'
p774
S'patent'
p775
S'syncs'
p776
S'meetup'
p777
S'published'
p778
S'tops'
p779
S'evil'
p780
S'bloomberg'
p781
S'coinlab'
p782
S'investments'
p783
S'unocoin'
p784
S'bitvegas'
p785
S'vende'
p786
S'adding'
p787
S'buyers'
p788
S'appreciated'
p789
S'cybersecurity'
p790
S'bottom'
p791
S'marketing'
p792
S'burn'
p793
S'months'
p794
S'accepts'
p795
S'donation'
p796
S'absolutely'
p797
S'congratulations'
p798
S'delete'
p799
S'bitcoint'
p800
S'shaydiddy'
p801
S'textbook'
p802
S'dying'
p803
S'roll'
p804
S'happening'
p805
S'push'
p806
S'serious'
p807
S'managed'
p808
S'chain'
p809
S'anonymous'
p810
S'item'
p811
S'mashable'
p812
S'dealing'
p813
S'losing'
p814
S'insider'
p815
S'jacobcze'
p816
S'graphic'
p817
S'claim'
p818
S'maybe'
p819
S'tweets'
p820
S'answer'
p821
S'space'
p822
S'believers'
p823
S'internet'
p824
S'care'
p825
S'wrong'
p826
S'star'
p827
S'vote'
p828
S'virtualcurrency'
p829
S'shoppers'
p830
S'national'
p831
S'cyprus'
p832
S'message'
p833
S'rehab'
p834
S'cards'
p835
S'sells'
p836
S'speakers'
p837
S'note'
p838
S'trace'
p839
S'pages'
p840
S'cheap'
p841
S'jpmorgan'
p842
S'truly'
p843
S'installed'
p844
S'coindebate'
p845
S'calendar'
p846
S'filmannex'
p847
S'sites'
p848
S'reading'
p849
S'wednesday'
p850
S'trades'
p851
S'paying'
p852
S'livepurafoods'
p853
S'binary'
p854
S'retweeting'
p855
S'persona'
p856
S'bitcoinhearings'
p857
S'magical'
p858
S'urdailybitcoin'
p859
S'summer'
p860
S'touch'
p861
S'miracle'
p862
S'conditional'
p863
S'industry'
p864
S'decreased'
p865
S'kyletorpey'
p866
S'alleged'
p867
S'venturebeat'
p868
S'bubble'
p869
S'complete'
p870
S'fraud'
p871
S'agree'
p872
S'daily'
p873
S'film'
p874
S'included'
p875
S'invest'
p876
S'decide'
p877
S'awful'
p878
S'ticker'
p879
S'linguists'
p880
S'sync'
p881
S'zero'
p882
S'public'
p883
S'iras'
p884
S'luck'
p885
S'africa'
p886
S'texts'
p887
S'pulls'
p888
S'bitcoinnews'
p889
S'evolved'
p890
S'complain'
p891
S'beautiful'
p892
S'simple'
p893
S'string'
p894
S'turbine'
p895
S'developer'
p896
S'bummer'
p897
S'mthompsoncnbc'
p898
S'telegraph'
p899
S'button'
p900
S'missed'
p901
S'issue'
p902
S'friday'
p903
S'jmakamba'
p904
S'dive'
p905
S'dont'
p906
S'gleefully'
p907
S'eggs'
p908
S'chart'
p909
S'gains'
p910
S'resolve'
p911
S'currently'
p912
S'thrive'
p913
S'pissed'
p914
S'cryptiv'
p915
S'vault'
p916
S'cryptofund'
p917
S'convo'
p918
S'error'
p919
S'spont'
p920
S'thecryptofund'
p921
S'ready'
p922
S'anymore'
p923
S'james'
p924
S'webgl'
p925
S'useful'
p926
S'astonuniversity'
p927
S'location'
p928
S'easter'
p929
S'useless'
p930
S'australia'
p931
S'androidbeam'
p932
S'connecting'
p933
S'madbitcoins'
p934
S'at&t'
p935
S'impressed'
p936
S'filed'
p937
S'posted'
p938
S'regulations'
p939
S'fresh'
p940
S'truckstop'
p941
S'groceries'
p942
S'helps'
p943
S'bitcoinindexes'
p944
S'friendly'
p945
S'mainstream'
p946
S'magic'
p947
S'notes'
p948
S'click'
p949
S'font'
p950
S'indian'
p951
S'honor'
p952
S'plateforme'
p953
S'clients'
p954
S'struggles'
p955
S'delay'
p956
S'instead'
p957
S'traders'
p958
S'mention'
p959
S'auditable'
p960
S'globe'
p961
S'photos'
p962
S'announced'
p963
S'undo'
p964
S'surely'
p965
S'regulatory'
p966
S'suck'
p967
S'perfectly'
p968
S'goldrush'
p969
S'bitcoinminer'
p970
S'nytimes'
p971
S'bring'
p972
S'spreadshirt'
p973
S'aliprobro'
p974
S'altcoins'
p975
S'freeze'
p976
S'gmail'
p977
S'record'
p978
S'linguistics'
p979
S'importance'
p980
S'career'
p981
S'bitcoininfo'
p982
S'earning'
p983
S'graphics'
p984
S'owns'
p985
S'wild'
p986
S'btxtrader'
p987
S'identity'
p988
S'reasons'
p989
S'crack'
p990
S'boom'
p991
S'newsstand'
p992
S'facial'
p993
S'dubai'
p994
S'motorola'
p995
S'shed'
p996
S'drop'
p997
S'tumblr'
p998
S'lead'
p999
tp1000
.