(S'exchange'
p0
S'china'
p1
S'liquidation'
p2
S'mtgox'
p3
S'price'
p4
S'cryptocurrency'
p5
S'bank'
p6
S'files'
p7
S'litecoin'
p8
S'money'
p9
S'court'
p10
S'free'
p11
S'currency'
p12
S'news'
p13
S'liquidated'
p14
S'mining'
p15
S'technology'
p16
S'blockchain'
p17
S'payment'
p18
S'sell'
p19
S'reddit'
p20
S'using'
p21
S'bankruptcy'
p22
S'dogecoin'
p23
S'reserve'
p24
S'market'
p25
S'wallet'
p26
S'federal'
p27
S'author'
p28
S'liquidate'
p29
S'name'
p30
S'online'
p31
S'official'
p32
S'szabo'
p33
S'coindesk'
p34
S'time'
p35
S'million'
p36
S'linguistic'
p37
S'researchers'
p38
S'uprising'
p39
S'spend'
p40
S'nick'
p41
S'whitepaper'
p42
S'brasserietivoli'
p43
S'wallets'
p44
S'reportedly'
p45
S'rehabilitation'
p46
S'oudenbosch'
p47
S'holland'
p48
S'operational'
p49
S'terminal'
p50
S'blog'
p51
S'plans'
p52
S'crackdown'
p53
S'skirting'
p54
S'banks'
p55
S'guide'
p56
S'jgarzik'
p57
S'mins'
p58
S'security'
p59
S'live'
p60
S'troubled'
p61
S'central'
p62
S'reuters'
p63
S'accepting'
p64
S'business'
p65
S'miner'
p66
S'virtual'
p67
S'tech'
p68
S'amazon'
p69
S'people'
p70
S'power'
p71
S'calls'
p72
S'plan'
p73
S'satoshi'
p74
S'hope'
p75
S'exchanges'
p76
S'card'
p77
S'administration'
p78
S'tweet'
p79
S'changed'
p80
S'address'
p81
S'cnbc'
p82
S'creator'
p83
S'taking'
p84
S'lost'
p85
S'officially'
p86
S'protection'
p87
S'digital'
p88
S'chinese'
p89
S'hasn'
p90
S'abandons'
p91
S'play'
p92
S'article'
p93
S'giving'
p94
S'times'
p95
S'nakamoto'
p96
S'value'
p97
S'bitstamp'
p98
S'retrogaming'
p99
S'looking'
p100
S'worth'
p101
S'street'
p102
S'rejects'
p103
S'btce'
p104
S'denies'
p105
S'post'
p106
S'amsterdam'
p107
S'support'
p108
S'global'
p109
S'tries'
p110
S'future'
p111
S'rebuild'
p112
S'real'
p113
S'laundering'
p114
S'world'
p115
S'road'
p116
S'social'
p117
S'accept'
p118
S'gold'
p119
S'silk'
p120
S'tokyo'
p121
S'fundamentally'
p122
S'bought'
p123
S'http'
p124
S'projectcoin'
p125
S'bringing'
p126
S'recovery'
p127
S'unmasked'
p128
S'president'
p129
S'debit'
p130
S'crypto'
p131
S'quits'
p132
S'pair'
p133
S'trader'
p134
S'cash'
p135
S'coinbase'
p136
S'revival'
p137
S'heads'
p138
S'services'
p139
S'community'
p140
S'signal'
p141
S'doesn'
p142
S'nice'
p143
S'users'
p144
S'watch'
p145
S'wall'
p146
S'bitcoinmoney'
p147
S'skill'
p148
S'poor'
p149
S'cashclamber'
p150
S'bitcoinagile'
p151
S'warns'
p152
S'interview'
p153
S'japan'
p154
S'content'
p155
S'ranging'
p156
S'bitundo'
p157
S'transactions'
p158
S'stop'
p159
S'report'
p160
S'result'
p161
S'games'
p162
S'website'
p163
S'east'
p164
S'entrepreneur'
p165
S'profits'
p166
S'sign'
p167
S'spanning'
p168
S'yielding'
p169
S'half'
p170
S'profit'
p171
S'allegedly'
p172
S'recover'
p173
S'btcnewsbot'
p174
S'indicted'
p175
S'middle'
p176
S'media'
p177
S'investment'
p178
S'monetize'
p179
S'opps'
p180
S'plant'
p181
S'idea'
p182
S'fees'
p183
S'banking'
p184
S'available'
p185
S'prices'
p186
S'homeland'
p187
S'lacking'
p188
S'collapsed'
p189
S'prepares'
p190
S'capital'
p191
S'submitted'
p192
S'based'
p193
S'adoption'
p194
S'smart'
p195
S'avoid'
p196
S'journal'
p197
S'documentary'
p198
S'victoriavaneyk'
p199
S'placed'
p200
S'provide'
p201
S'engineer'
p202
S'foundation'
p203
S'japanese'
p204
S'mine'
p205
S'mentioning'
p206
S'replace'
p207
S'hunt'
p208
S'deal'
p209
S'dealbook'
p210
S'love'
p211
S'insider'
p212
S'discussion'
p213
S'talk'
p214
S'rebuilding'
p215
S'multibit'
p216
S'awards'
p217
S'anti'
p218
S'shopping'
p219
S'check'
p220
S'costs'
p221
S'dark'
p222
S'rising'
p223
S'sales'
p224
S'moves'
p225
S'dollar'
p226
S'difference'
p227
S'heralds'
p228
S'appreciating'
p229
S'allows'
p230
S'flaws'
p231
S'discoverbitcoin'
p232
S'libertarian'
p233
S'huge'
p234
S'help'
p235
S'paper'
p236
S'encouraging'
p237
S'funding'
p238
S'built'
p239
S'bars'
p240
S'forensic'
p241
S'annual'
p242
S'stolen'
p243
S'keys'
p244
S'chronicles'
p245
S'questions'
p246
S'ronpaul'
p247
S'video'
p248
S'growing'
p249
S'private'
p250
S'panic'
p251
S'earn'
p252
S'doing'
p253
S'salesman'
p254
S'able'
p255
S'taps'
p256
S'local'
p257
S'addition'
p258
S'government'
p259
S'payments'
p260
S'software'
p261
S'boom'
p262
S'risk'
p263
S'called'
p264
S'cointalks'
p265
S'credit'
p266
S'secure'
p267
S'recommend'
p268
S'india'
p269
S'fidelity'
p270
S'safe'
p271
S'merchants'
p272
S'days'
p273
S'service'
p274
S'ebay'
p275
S'coin'
p276
S'unable'
p277
S'speak'
p278
S'conference'
p279
S'survival'
p280
S'petersurda'
p281
S'dollars'
p282
S'civil'
p283
S'paypal'
p284
S'alerts'
p285
S'update'
p286
S'billion'
p287
S'heard'
p288
S'hearn'
p289
S'finance'
p290
S'rational'
p291
S'hacked'
p292
S'sale'
p293
S'jpmorgan'
p294
S'aggressive'
p295
S'markkarpeles'
p296
S'read'
p297
S'start'
p298
S'research'
p299
S'results'
p300
S'rate'
p301
S'link'
p302
S'iras'
p303
S'markets'
p304
S'coming'
p305
S'found'
p306
S'feel'
p307
S'leading'
p308
S'redditbtc'
p309
S'theft'
p310
S'restart'
p311
S'intelligence'
p312
S'cryptocurrencies'
p313
S'defunct'
p314
S'reasons'
p315
S'damn'
p316
S'matters'
p317
S'game'
p318
S'johnehenderson'
p319
S'step'
p320
S'vendors'
p321
S'warning'
p322
S'sent'
p323
S'manipulated'
p324
S'expresses'
p325
S'apple'
p326
S'announcing'
p327
S'traders'
p328
S'stock'
p329
S'including'
p330
S'crash'
p331
S'investor'
p332
S'agreed'
p333
S'ecosystem'
p334
S'desperate'
p335
S'mike'
p336
S'prospects'
p337
S'minneapolis'
p338
S'owns'
p339
S'transaction'
p340
S'center'
p341
S'increased'
p342
S'howto'
p343
S'dubai'
p344
S'host'
p345
S'apps'
p346
S'petertoddbtc'
p347
S'biggest'
p348
S'rumors'
p349
S'wednesday'
p350
S'cyprus'
p351
S'reported'
p352
S'tell'
p353
S'excellent'
p354
S'bitcoinmarket'
p355
S'believers'
p356
S'handcuff'
p357
S'newport'
p358
S'trading'
p359
S'created'
p360
S'starts'
p361
S'bitfinex'
p362
S'primary'
p363
S'abandoning'
p364
S'silly'
p365
S'stomping'
p366
S'talking'
p367
S'seen'
p368
S'relayed'
p369
S'recommended'
p370
S'peers'
p371
S'consumer'
p372
S'steal'
p373
S'fair'
p374
S'life'
p375
S'buysellbitco'
p376
S'commerce'
p377
S'experts'
p378
S'coinlab'
p379
S'investments'
p380
S'innocent'
p381
S'save'
p382
S'thebitcoinnews'
p383
S'gift'
p384
S'cybersecurity'
p385
S'tetris'
p386
S'accepts'
p387
S'america'
p388
S'inside'
p389
S'tesla'
p390
S'voluntarism'
p391
S'serious'
p392
S'concept'
p393
S'pantelis'
p394
S'string'
p395
S'anonymous'
p396
S'trouble'
p397
S'mely'
p398
S'goes'
p399
S'french'
p400
S'change'
p401
S'wait'
p402
S'following'
p403
S'fuck'
p404
S'dive'
p405
S'drop'
p406
S'morning'
p407
S'seriously'
p408
S'kocherlakota'
p409
S'rehab'
p410
S'trace'
p411
S'cleared'
p412
S'campbx'
p413
S'sites'
p414
S'west'
p415
S'mark'
p416
S'textbook'
p417
S'livepurafoods'
p418
S'week'
p419
S'urdailybitcoin'
p420
S'bitcoinanomaly'
p421
S'accepted'
p422
S'frogger'
p423
S'moon'
p424
S'bitraction'
p425
S'decreased'
p426
S'aren'
p427
S'alleged'
p428
S'bubble'
p429
S'fraud'
p430
S'pacman'
p431
S'creditcard'
p432
S'invest'
p433
S'websites'
p434
S'month'
p435
S'chain'
p436
S'bubbles'
p437
S'investing'
p438
S'company'
p439
S'history'
p440
S'facebook'
p441
S'playing'
p442
S'soon'
p443
S'fool'
p444
S'hard'
p445
S'deals'
p446
S'trooper'
p447
S'ecommerce'
p448
S'beginning'
p449
S'fiat'
p450
S'faucet'
p451
S'major'
p452
S'story'
p453
S'quote'
p454
S'chart'
p455
S'mobile'
p456
S'roussakis'
p457
S'gains'
p458
S'close'
p459
S'expert'
p460
S'please'
p461
S'latin'
p462
S'cryptiv'
p463
S'else'
p464
S'look'
p465
S'spont'
p466
S'survey'
p467
S'yesterday'
p468
S'arrests'
p469
S'btcfoundation'
p470
S'arbitrage'
p471
S'forward'
p472
S'mycelium'
p473
S'filed'
p474
S'skull'
p475
S'regulations'
p476
S'bitcoinmining'
p477
S'makes'
p478
S'decentralized'
p479
S'narayana'
p480
S'means'
p481
S'account'
p482
S'clients'
p483
S'meet'
p484
S'drops'
p485
S'struggles'
p486
S'lands'
p487
S'mention'
p488
S'regulatory'
p489
S'tributes'
p490
S'system'
p491
S'sahm'
p492
S'controls'
p493
S'aliprobro'
p494
S'national'
p495
S'record'
p496
S'email'
p497
S'bitcoininfo'
p498
S'anomaly'
p499
S'wild'
p500
S'demo'
p501
S'site'
p502
S'ochocinco'
p503
S'identity'
p504
S'stores'
p505
S'bitcoinomie'
p506
S'shed'
p507
S'didn'
p508
S'tumblr'
p509
S'growth'
p510
S'transfer'
p511
S'brand'
p512
S'hate'
p513
S'paris'
p514
S'jacob'
p515
S'companies'
p516
S'convenience'
p517
S'direct'
p518
S'supplier'
p519
S'sinks'
p520
S'maxcoin'
p521
S'egifter'
p522
S'schiff'
p523
S'items'
p524
S'reports'
p525
S'fantastic'
p526
S'explained'
p527
S'cont'
p528
S'auditing'
p529
S'music'
p530
S'holi'
p531
S'hold'
p532
S'join'
p533
S'captcha'
p534
S'koinim'
p535
S'machine'
p536
S'beach'
p537
S'containing'
p538
S'mastercoin'
p539
S'trying'
p540
S'easier'
p541
S'coffee'
p542
S'silver'
p543
S'european'
p544
S'financial'
p545
S'network'
p546
S'newly'
p547
S'strategist'
p548
S'bitcoinsberlin'
p549
S'heck'
p550
S'newegg'
p551
S'john'
p552
S'listen'
p553
S'mint'
p554
S'forced'
p555
S'scounter'
p556
S'ebook'
p557
S'storm'
p558
S'bust'
p559
S'folks'
p560
S'volatility'
p561
S'gigaom'
p562
S'decided'
p563
S'wikipedia'
p564
S'hopefully'
p565
S'exceeds'
p566
S'betting'
p567
S'trust'
p568
S'megabubble'
p569
S'easy'
p570
S'wish'
p571
S'property'
p572
S'played'
p573
S'patent'
p574
S'meetup'
p575
S'ericlarch'
p576
S'breaks'
p577
S'tops'
p578
S'portal'
p579
S'mentions'
p580
S'protocol'
p581
S'thanks'
p582
S'electrum'
p583
S'buyers'
p584
S'spread'
p585
S'giftcardbtc'
p586
S'gostar'
p587
S'comments'
p588
S'paulbuitink'
p589
S'peer'
p590
S'months'
p591
S'banker'
p592
S'bound'
p593
S'true'
p594
S'congratulations'
p595
S'drive'
p596
S'shit'
p597
S'physical'
p598
S'holding'
p599
S'weekend'
p600
S'remarkable'
p601
S'alternatives'
p602
S'leads'
p603
S'vegas'
p604
S'round'
p605
S'trend'
p606
S'prediction'
p607
S'cyber'
p608
S'boost'
p609
S'pcworld'
p610
S'extra'
p611
S'fake'
p612
S'wealth'
p613
S'jacobcze'
p614
S'december'
p615
S'craze'
p616
S'secures'
p617
S'information'
p618
S'date'
p619
S'guys'
p620
S'btcauthority'
p621
S'blocked'
p622
S'thank'
p623
S'listing'
p624
S'texas'
p625
S'nation'
p626
S'answer'
p627
S'challenges'
p628
S'speculators'
p629
S'bullish'
p630
S'internet'
p631
S'tomorrow'
p632
S'virtualcurrency'
p633
S'friend'
p634
S'eyed'
p635
S'investors'
p636
S'bitcash'
p637
S'bets'
p638
S'paid'
p639
S'shop'
p640
S'coindebate'
p641
S'reading'
p642
S'btcturk'
p643
S'bitcoingarden'
p644
S'bloomberg'
p645
S'worry'
p646
S'speech'
p647
S'lite'
p648
S'singapore'
p649
S'bitcoinhearings'
p650
S'czech'
p651
S'nexusbitcoin'
p652
S'application'
p653
S'server'
p654
S'millennials'
p655
S'noveltylab'
p656
S'critical'
p657
S'cautions'
p658
S'preps'
p659
S'announcement'
p660
S'hire'
p661
S'agree'
p662
S'gone'
p663
S'storage'
p664
S'gambling'
p665
S'fresh'
p666
S'assets'
p667
S'karlchappe'
p668
S'former'
p669
S'baidu'
p670
S'worst'
p671
S'list'
p672
S'linguisti'
p673
S'emotions'
p674
S'public'
p675
S'hours'
p676
S'leeds'
p677
S'bitcoinnews'
p678
S'initiates'
p679
S'hour'
p680
S'learn'
p681
S'breaking'
p682
S'crowdfunding'
p683
S'turnover'
p684
S'actually'
p685
S'seeking'
p686
S'operation'
p687
S'offline'
p688
S'pulpspot'
p689
S'store'
p690
S'selling'
p691
S'draper'
p692
S'livestream'
p693
S'translation'
p694
S'punters'
p695
S'gathering'
p696
S'dealers'
p697
S'victormertz'
p698
S'kncminer'
p699
S'jonwaller'
p700
S'failed'
p701
S'liquid'
p702
S'banned'
p703
S'express'
p704
S'courage'
p705
S'startup'
p706
S'thrive'
p707
S'sold'
p708
S'suivez'
p709
S'cashing'
p710
S'cryptofund'
p711
S'understand'
p712
S'worldlibertynew'
p713
S'convo'
p714
S'error'
p715
S'thecryptofund'
p716
S'bitcoindunyasi'
p717
S'currencies'
p718
S'holidays'
p719
S'moment'
p720
S'recent'
p721
S'swiss'
p722
S'astonuniversity'
p723
S'bitpay'
p724
S'bloombergnews'
p725
S'bounce'
p726
S'sight'
p727
S'delivered'
p728
S'integration'
p729
S'silence'
p730
S'seeing'
p731
S'pennystocks'
p732
S'twitter'
p733
S'curb'
p734
S'generated'
p735
S'bitcoinmagazine'
p736
S'truckstop'
p737
S'ashamed'
p738
S'groceries'
p739
S'shanghai'
p740
S'botolo'
p741
S'bitcoinindexes'
p742
S'women'
p743
S'friendly'
p744
S'mainstream'
p745
S'magic'
p746
S'index'
p747
S'indian'
p748
S'reporting'
p749
S'scrapped'
p750
S'products'
p751
S'honor'
p752
S'throwback'
p753
S'home'
p754
S'confidence'
p755
S'butler'
p756
S'started'
p757
S'potential'
p758
S'pour'
p759
S'nixes'
p760
S'control'
p761
S'beijing'
p762
S'located'
p763
S'josephjett'
p764
S'newsweek'
p765
S'linguistics'
p766
S'defining'
p767
S'relates'
p768
S'announces'
p769
S'announced'
p770
S'york'
p771
S'management'
p772
S'psubtc'
p773
S'data'
p774
S'loved'
p775
S'clickbank'
p776
S'rtmy'
p777
S'bitcoinminer'
p778
S'dutch'
p779
S'consequences'
p780
S'request'
p781
S'watching'
p782
S'crumbling'
p783
S'taxes'
p784
S'view'
p785
S'computer'
p786
S'irish'
p787
S'slashdot'
p788
S'charlieshrem'
p789
S'secrets'
p790
S'tumbling'
p791
S'largest'
p792
S'freebitcoin'
p793
S'student'
p794
S'fucked'
p795
S'drone'
p796
S'percent'
p797
S'ndcouncilhouse'
p798
S'deposits'
p799
S'capabilities'
p800
S'forbes'
p801
S'authority'
p802
S'peter'
p803
S'thecoinfront'
p804
S'competitor'
p805
S'chains'
p806
S'reaching'
p807
S'getting'
p808
S'angeles'
p809
S'unsustainable'
p810
S'belgrade'
p811
S'btctuz'
p812
S'north'
p813
S'otcmarket'
p814
S'flix'
p815
S'ruling'
p816
S'piece'
p817
S'penny'
p818
S'philrod'
p819
S'gliph'
p820
S'buysellbitcoinr'
p821
S'corporation'
p822
S'album'
p823
S'star'
p824
S'microelectronics'
p825
S'whoops'
p826
S'vani'
p827
S'woods'
p828
S'mansion'
p829
S'forget'
p830
S'founder'
p831
S'sorry'
p832
S'merchant'
p833
S'rise'
p834
S'sellers'
p835
S'handling'
p836
S'updates'
p837
S'special'
p838
S'cnet'
p839
S'school'
p840
S'tanishinishi'
p841
S'commented'
p842
S'bitburner'
p843
S'tired'
p844
S'nail'
p845
S'surrounding'
p846
S'thebitcoinwife'
p847
S'errors'
p848
S'panama'
p849
S'asic'
p850
S'asia'
p851
S'cornolti'
p852
S'hundreds'
p853
S'active'
p854
S'kids'
p855
S'forum'
p856
S'study'
p857
S'kidd'
p858
S'bunker'
p859
S'ponder'
p860
S'coinboard'
p861
S'highly'
p862
S'explainer'
p863
S'euros'
p864
S'derivatives'
p865
S'criminals'
p866
S'century'
p867
S'asset'
p868
S'type'
p869
S'bombass'
p870
S'awith'
p871
S'yahoo'
p872
S'aware'
p873
S'phone'
p874
S'frenzy'
p875
S'esecurity'
p876
S'blocking'
p877
S'youkitguru'
p878
S'plunged'
p879
S'venturecapitalist'
p880
S'onit'
p881
S'onis'
p882
S'plunges'
p883
S'honey'
p884
S'fibonacci'
p885
S'cites'
p886
S'amazing'
p887
S'offshore'
p888
S'pizza'
p889
S'gaming'
p890
S'poker'
p891
S'description'
p892
S'paywith'
p893
S'insecure'
p894
S'bitcoinvendingmachine'
p895
S'purchase'
p896
S'danny'
p897
S'attempt'
p898
S'third'
p899
S'amid'
p900
S'appreciate'
p901
S'tulip'
p902
S'fraudulently'
p903
S'greed'
p904
S'telecom'
p905
S'againstfor'
p906
S'london'
p907
S'innovative'
p908
S'personal'
p909
S'coinfloor'
p910
S'writing'
p911
S'weeks'
p912
S'eventually'
p913
S'bans'
p914
S'anii'
p915
S'break'
p916
S'jalgroy'
p917
S'toczech'
p918
S'bread'
p919
S'debut'
p920
S'arrested'
p921
S'cryptostocks'
p922
S'rtthe'
p923
S'luck'
p924
S'independent'
p925
S'debunked'
p926
S'solution'
p927
S'arrives'
p928
S'forgot'
p929
S'bitcoinatm'
p930
S'crucial'
p931
S'banning'
p932
S'surprise'
p933
S'etfs'
p934
S'thatis'
p935
S'estimate'
p936
S'nilssonanders'
p937
S'ponzi'
p938
S'tobitcoin'
p939
S'bates'
p940
S'installs'
p941
S'plummets'
p942
S'onto'
p943
S'characters'
p944
S'economists'
p945
S'researcher'
p946
S'seeprice'
p947
S'rank'
p948
S'hook'
p949
S'featured'
p950
S'drones'
p951
S'sober'
p952
S'electronic'
p953
S'dogg'
p954
S'vertcoin'
p955
S'npwndrngfwhat'
p956
S'rates'
p957
S'decentralised'
p958
S'worlds'
p959
S'postulate'
p960
S'tool'
p961
S'hazelnut'
p962
S'begins'
p963
S'videoanimation'
p964
S'illiquidity'
p965
S'handcuffs'
p966
S'preparation'
p967
S'matter'
p968
S'fctb'
p969
S'powers'
p970
S'acquisition'
p971
S'lawyer'
p972
S'longs'
p973
S'autotrades'
p974
S'strength'
p975
S'bitcoinreporter'
p976
S'client'
p977
S'panties'
p978
S'clears'
p979
S'germany'
p980
S'calculated'
p981
S'enterprise'
p982
S'responded'
p983
S'bitcoinschile'
p984
S'advisors'
p985
S'angelofrei'
p986
S'caper'
p987
S'busy'
p988
S'banktrans'
p989
S'explain'
p990
S'haven'
p991
S'rich'
p992
S'streaker'
p993
S'klein'
p994
S'hostility'
p995
S'pocket'
p996
S'reversal'
p997
S'despite'
p998
S'hendry'
p999
S'quotes'
p1000
S'everyhas'
p1001
S'patch'
p1002
S'twice'
p1003
S'steam'
p1004
S'karnataka'
p1005
S'liquor'
p1006
S'detection'
p1007
S'australia'
p1008
S'iran'
p1009
S'hammer'
p1010
S'subject'
p1011
S'brazil'
p1012
S'mentionoreven'
p1013
S'brewster'
p1014
S'pirate'
p1015
S'stakeholder'
p1016
S'boss'
p1017
S'internt'
p1018
S'roller'
p1019
S'pity'
p1020
S'players'
p1021
S'balboas'
p1022
S'tone'
p1023
S'panelbest'
p1024
S'height'
p1025
S'diff'
p1026
S'thecryptogroup'
p1027
S'claiming'
p1028
S'subside'
p1029
S'useto'
p1030
S'tine'
p1031
S'lewisbits'
p1032
S'threw'
p1033
S'drugs'
p1034
S'creditcards'
p1035
S'dismiss'
p1036
S'levels'
p1037
S'dave'
p1038
S'chile'
p1039
S'virtualcurre'
p1040
S'tank'
p1041
S'publicly'
p1042
S'launches'
p1043
S'weren'
p1044
S'neat'
p1045
S'coffin'
p1046
S'procedure'
p1047
S'bythis'
p1048
S'krusty'
p1049
S'straits'
p1050
S'mattsoleyn'
p1051
S'conf'
p1052
S'march'
p1053
S'seattle'
p1054
S'trusted'
p1055
S'globalnational'
p1056
S'hong'
p1057
S'awakes'
p1058
S'thebitcoingirl'
p1059
S'decentraliz'
p1060
S'linked'
p1061
S'complex'
p1062
S'maxcoinsweden'
p1063
S'split'
p1064
S'unbitcoinish'
p1065
S'evolve'
p1066
S'lashandrow'
p1067
S'oncan'
p1068
S'opportunity'
p1069
S'cycle'
p1070
S'programs'
p1071
S'bitcoinminersuk'
p1072
S'acceptingit'
p1073
S'detained'
p1074
S'hearts'
p1075
S'left'
p1076
S'militent'
p1077
S'newchina'
p1078
S'buthas'
p1079
S'peercoins'
p1080
S'note'
p1081
S'ease'
p1082
S'royal'
p1083
S'passive'
p1084
S'prison'
p1085
S'bastards'
p1086
S'tiuupbzhxxdghpzunj'
p1087
S'incontrovertible'
p1088
S'vanity'
p1089
S'bobby'
p1090
S'howells'
p1091
S'dnotescoin'
p1092
S'night'
p1093
S'localbitcoin'
p1094
S'somehow'
p1095
S'dorian'
p1096
S'dear'
p1097
S'nytimes'
p1098
S'advertise'
p1099
S'toxic'
p1100
S'humor'
p1101
S'tracked'
p1102
S'mulls'
p1103
S'dvgooyp'
p1104
S'unmissable'
p1105
S'christmas'
p1106
S'seminario'
p1107
S'peek'
p1108
S'marketing'
p1109
S'corp'
p1110
S'fairproof'
p1111
S'borked'
p1112
S'donation'
p1113
S'steveneedham'
p1114
S'magazine'
p1115
S'slightly'
p1116
S'coins'
p1117
S'whats'
p1118
S'raises'
p1119
S'grabbed'
p1120
S'deception'
p1121
S'crowd'
p1122
S'vision'
p1123
S'stuck'
p1124
S'wordpress'
p1125
S'fraction'
p1126
S'farmersmarket'
p1127
S'head'
p1128
S'newfunded'
p1129
S'offer'
p1130
S'cryp'
p1131
S'onemeetup'
p1132
S'analyst'
p1133
S'builds'
p1134
S'bargain'
p1135
S'lays'
p1136
S'bitcoint'
p1137
S'computing'
p1138
S'stronger'
p1139
S'proven'
p1140
S'prayer'
p1141
S'accounting'
p1142
S'dealer'
p1143
S'whee'
p1144
S'reality'
p1145
S'cpyeyezlb'
p1146
S'welcome'
p1147
S'transfers'
p1148
S'acqui'
p1149
S'happening'
p1150
S'assume'
p1151
S'push'
p1152
S'managed'
p1153
S'skis'
p1154
S'invent'
p1155
S'mtare'
p1156
S'battle'
p1157
S'mill'
p1158
S'givecoin'
p1159
S'obamacare'
p1160
S'tush'
p1161
S'jerk'
p1162
S'billionaire'
p1163
S'word'
p1164
S'minute'
p1165
S'markhughes'
p1166
S'forno'
p1167
S'aula'
p1168
S'settle'
p1169
S'team'
p1170
S'quick'
p1171
S'speculation'
p1172
S'revolution'
p1173
S'dealing'
p1174
S'mfsgstas'
p1175
S'cost'
p1176
S'targets'
p1177
S'penetrated'
p1178
S'celebrated'
p1179
S'current'
p1180
S'international'
p1181
S'falling'
p1182
S'aint'
p1183
S'morgan'
p1184
S'guardian'
p1185
S'water'
p1186
S'bitcoinsvia'
p1187
S'incoming'
p1188
S'noticeable'
p1189
S'shift'
p1190
S'lowers'
p1191
S'emerge'
p1192
S'kprs'
p1193
S'panamabitcoins'
p1194
S'bulbs'
p1195
S'angry'
p1196
S'visit'
p1197
S'distancing'
p1198
S'scenarios'
p1199
S'iphone'
p1200
S'wondering'
p1201
S'australian'
p1202
S'encryption'
p1203
S'sharing'
p1204
S'valued'
p1205
S'soul'
p1206
S'currencyvia'
p1207
S'labeled'
p1208
S'claim'
p1209
S'dedicated'
p1210
S'nerdcore'
p1211
S'winston'
p1212
S'sharp'
p1213
S'stole'
p1214
S'parliamentary'
p1215
S'spreads'
p1216
S'intothen'
p1217
S'bitcoinpoet'
p1218
S'explores'
p1219
S'heartbleed'
p1220
S'rehabilitate'
p1221
S'birthday'
p1222
S'grow'
p1223
S'neck'
p1224
S'johnson'
p1225
S'maybe'
p1226
S'deposit'
p1227
S'epizoda'
p1228
S'exclusive'
p1229
S'xzwnism'
p1230
S'indeed'
p1231
S'kong'
p1232
S'shake'
p1233
S'cold'
p1234
S'midasmarni'
p1235
S'avid'
p1236
S'police'
p1237
S'platform'
p1238
S'covertly'
p1239
S'offers'
p1240
S'suspicion'
p1241
S'artisan'
p1242
S'tweets'
p1243
S'mail'
p1244
S'undermines'
p1245
S'renaming'
p1246
S'onemanatatime'
p1247
S'killer'
p1248
S'introduce'
p1249
S'discuss'
p1250
S'developments'
p1251
S'nama'
p1252
S'term'
p1253
S'lies'
p1254
S'bitcoinspreads'
p1255
S'james'
p1256
S'slumps'
p1257
S'intrigued'
p1258
S'entirely'
p1259
S'square'
p1260
S'antonopoulos'
p1261
S'tried'
p1262
S'hacker'
p1263
S'tulips'
p1264
S'increase'
p1265
S'transforming'
p1266
S'bankingpeter'
p1267
S'dominate'
p1268
S'dodgers'
p1269
S'theory'
p1270
S'cars'
p1271
S'remittances'
p1272
S'lucrative'
p1273
S'inevitable'
p1274
S'forbids'
p1275
S'care'
p1276
S'partner'
p1277
S'minting'
p1278
S'massive'
p1279
S'swing'
p1280
S'yess'
p1281
S'cryptomoms'
p1282
S'suspend'
p1283
S'soaring'
p1284
S'simplified'
p1285
S'nova'
p1286
S'spanish'
p1287
S'millions'
p1288
S'caught'
p1289
S'bitc'
p1290
S'citi'
p1291
S'shoppers'
p1292
S'wonga'
p1293
S'ownership'
p1294
S'released'
p1295
S'surged'
p1296
S'appreciated'
p1297
S'inventor'
p1298
S'wide'
p1299
S'cracks'
p1300
S'lmao'
p1301
S'rival'
p1302
S'transferred'
p1303
S'lukewearechange'
p1304
S'venture'
p1305
S'btcchina'
p1306
S'woah'
p1307
S'rent'
p1308
S'nazi'
p1309
S'bizitalk'
p1310
S'speakers'
p1311
S'bitcoinmarkets'
p1312
S'efficient'
p1313
S'answering'
p1314
S'ideas'
p1315
S'ifisn'
p1316
S'animation'
p1317
S'destroy'
p1318
S'mayer'
p1319
S'switching'
p1320
S'assault'
p1321
S'forever'
p1322
S'especially'
p1323
S'payable'
p1324
S'average'
p1325
S'implications'
p1326
S'davidealgebris'
p1327
S'atlantic'
p1328
S'shot'
p1329
S'cheap'
p1330
S'discovered'
p1331
S'crashing'
p1332
S'enthusiast'
p1333
S'slow'
p1334
S'dice'
p1335
S'pump'
p1336
S'crime'
p1337
S'black'
p1338
S'treasury'
p1339
S'awareness'
p1340
S'dispute'
p1341
S'assistant'
p1342
S'legitimize'
p1343
S'truly'
p1344
S'ninefor'
p1345
S'freaking'
p1346
S'reveal'
p1347
S'aluminum'
p1348
S'busiest'
p1349
S'worried'
p1350
S'onfor'
p1351
S'predicted'
p1352
S'husband'
p1353
S'appnificent'
p1354
S'aroused'
p1355
S'szbdqvitazomozu'
p1356
S'weibo'
p1357
S'jonrussell'
p1358
S'farmers'
p1359
S'outside'
p1360
S'justified'
p1361
S'jobs'
p1362
S'bloombergtech'
p1363
S'blame'
p1364
S'comeback'
p1365
S'reaction'
p1366
S'talented'
p1367
S'johnrmeese'
p1368
S'trades'
p1369
S'millionaire'
p1370
S'divvydown'
p1371
S'tulipmania'
p1372
S'starbucksuk'
p1373
S'ininteresting'
p1374
S'insist'
p1375
S'learning'
p1376
S'babbling'
p1377
S'polo'
p1378
S'formood'
p1379
S'locally'
p1380
S'bypass'
p1381
S'careful'
p1382
S'offeres'
p1383
S'sound'
p1384
S'causedto'
p1385
S'witcoins'
p1386
S'marioskaratzias'
p1387
S'sleeping'
p1388
S'ironic'
p1389
S'shuts'
p1390
S'combination'
p1391
S'nsunvkajxfz'
p1392
S'gentlemen'
p1393
S'buys'
p1394
S'struggling'
p1395
S'retweeting'
p1396
S'driver'
p1397
S'drives'
p1398
S'totally'
p1399
S'macro'
p1400
S'buyinwithvia'
p1401
S'remarakable'
p1402
S'model'
p1403
S'acoffeecan'
p1404
S'summer'
p1405
S'morons'
p1406
S'libertyblitz'
p1407
S'ransoms'
p1408
S'cebtowergroup'
p1409
S'rest'
p1410
S'weekly'
p1411
S'buggerers'
p1412
S'generator'
p1413
S'thinking'
p1414
S'iphones'
p1415
S'sgkphjkjsn'
p1416
S'prominently'
p1417
S'stranger'
p1418
S'miracle'
p1419
S'maker'
p1420
S'robbery'
p1421
S'clap'
p1422
S'failure'
p1423
S'conditional'
p1424
S'pronounce'
p1425
S'organizing'
p1426
S'woahnow'
p1427
S'prolific'
p1428
S'legal'
p1429
S'pioneer'
p1430
S'rtcentral'
p1431
S'dwmchange'
p1432
S'affiliate'
p1433
S'federalreserve'
p1434
S'football'
p1435
S'weirdest'
p1436
S'standpoint'
p1437
S'feeds'
p1438
S'tumkur'
p1439
S'industry'
p1440
S'barry'
p1441
S'fromtransactions'
p1442
S'provisional'
p1443
S'bitcoinuk'
p1444
S'dagger'
p1445
S'venturebeatnews'
p1446
S'ronanlyn'
p1447
S'klillington'
p1448
S'determine'
p1449
S'gary'
p1450
S'nowadays'
p1451
S'protradertips'
p1452
S'forwarded'
p1453
S'opengl'
p1454
S'venturebeat'
p1455
S'sickgets'
p1456
S'bitrated'
p1457
S'survives'
p1458
S'complete'
p1459
S'promote'
p1460
S'volume'
p1461
S'leaked'
p1462
S'stealing'
p1463
S'deep'
p1464
S'pourquoi'
p1465
S'file'
p1466
S'mover'
p1467
S'film'
p1468
S'betbybitcoins'
p1469
S'gaining'
p1470
S'narco'
p1471
S'includes'
p1472
S'waving'
p1473
S'peak'
p1474
S'included'
p1475
S'linstockonline'
p1476
S'landfill'
p1477
S'boostvc'
p1478
S'fizzle'
p1479
S'bitebimi'
p1480
S'resolution'
p1481
S'represent'
p1482
S'donatingmakes'
p1483
S'consider'
p1484
S'chineseexchange'
p1485
S'kutcher'
p1486
S'program'
p1487
S'lawmakers'
p1488
S'activities'
p1489
S'returned'
p1490
S'bombace'
p1491
S'someonline'
p1492
S'decide'
p1493
S'fall'
p1494
S'ticker'
p1495
S'condition'
p1496
S'treating'
p1497
S'linguists'
p1498
S'heist'
p1499
S'fiverr'
p1500
S'harry'
p1501
S'attended'
p1502
S'burger'
p1503
S'displays'
p1504
S'disallowing'
p1505
S'consumers'
p1506
S'marketwatch'
p1507
S'anniversary'
p1508
S'version'
p1509
S'learned'
p1510
S'themselves'
p1511
S'skyrockets'
p1512
S'rigged'
p1513
S'tracks'
p1514
S'belize'
p1515
S'search'
p1516
S'compliance'
p1517
S'brutal'
p1518
S'amount'
p1519
S'inwe'
p1520
S'family'
p1521
S'emptied'
p1522
S'intoday'
p1523
S'takes'
p1524
S'brewindolphin'
p1525
S'gorgeous'
p1526
S'flaw'
p1527
S'diamond'
p1528
S'thur'
p1529
S'basically'
p1530
S'broke'
p1531
S'bpulse'
p1532
S'glad'
p1533
S'bbeagle'
p1534
S'halts'
p1535
S'evolved'
p1536
S'abandon'
p1537
S'goldentowns'
p1538
S'purchases'
p1539
S'scam'
p1540
S'minimum'
p1541
S'sense'
p1542
S'tothis'
p1543
S'advantage'
p1544
S'specialoffer'
p1545
S'hugh'
p1546
S'ledger'
p1547
S'freshly'
p1548
S'upto'
p1549
S'okay'
p1550
S'communicating'
p1551
S'catalog'
p1552
S'response'
p1553
S'proclaimed'
p1554
S'yester'
p1555
S'writingtranslation'
p1556
S'anytime'
p1557
S'bydoesn'
p1558
S'seizes'
p1559
S'garavaglia'
p1560
S'installed'
p1561
S'hell'
p1562
S'turbine'
p1563
S'developer'
p1564
S'late'
p1565
S'absence'
p1566
S'systems'
p1567
S'bummer'
p1568
S'followers'
p1569
S'wouldn'
p1570
S'food'
p1571
S'propose'
p1572
S'onstartups'
p1573
S'edtkl'
p1574
S'botnet'
p1575
S'milestone'
p1576
S'whatis'
p1577
S'stopped'
p1578
S'weight'
p1579
S'tiffany'
p1580
S'btcecom'
p1581
S'event'
p1582
S'missed'
p1583
S'unbanked'
p1584
S'occurs'
p1585
S'drink'
p1586
S'dirt'
p1587
S'friday'
p1588
S'difficulty'
p1589
S'reason'
p1590
S'imagine'
p1591
S'maths'
p1592
S'foris'
p1593
S'jmakamba'
p1594
S'benefits'
p1595
S'launch'
p1596
S'gledajte'
p1597
S'speculat'
p1598
S'feed'
p1599
S'karpeles'
p1600
S'bounces'
p1601
S'dust'
p1602
S'timeschina'
p1603
S'betwe'
p1604
S'doomsday'
p1605
S'prescient'
p1606
S'statement'
p1607
S'scheme'
p1608
S'gleefully'
p1609
S'option'
p1610
S'trapped'
p1611
S'forfreedom'
p1612
S'payouts'
p1613
S'rifle'
p1614
S'believe'
p1615
S'wolftech'
p1616
S'double'
p1617
S'womeninbitcoin'
p1618
S'aims'
p1619
S'recording'
p1620
S'greg'
p1621
S'galt'
p1622
S'ihavebitcoins'
p1623
S'withsays'
p1624
S'self'
p1625
S'nevadastatebank'
p1626
S'build'
p1627
S'kriptonovac'
p1628
S'hourly'
p1629
S'sponsored'
p1630
S'eaten'
p1631
S'achievement'
p1632
S'salary'
p1633
S'giggling'
p1634
S'sensing'
p1635
S'bitcoiner'
p1636
S'sometimes'
p1637
S'traditional'
p1638
S'institutions'
p1639
S'phenomenon'
p1640
S'buysellbitcoin'
p1641
S'session'
p1642
S'businesses'
p1643
S'coaster'
p1644
S'headlines'
p1645
S'keychain'
p1646
S'justice'
p1647
S'ruin'
p1648
S'starters'
p1649
S'factor'
p1650
S'circle'
p1651
S'obama'
p1652
S'competing'
p1653
S'doubled'
p1654
S'whitening'
p1655
S'hype'
p1656
S'plummeted'
p1657
S'branson'
p1658
S'probable'
p1659
S'currently'
p1660
S'halves'
p1661
S'pickup'
p1662
S'stall'
p1663
S'probably'
p1664
S'thepennydr'
p1665
S'creating'
p1666
S'missing'
p1667
S'nashville'
p1668
S'onnow'
p1669
S'league'
p1670
S'foreign'
p1671
S'vault'
p1672
S'bitcoinquartz'
p1673
S'mean'
p1674
S'loaf'
p1675
S'hackers'
p1676
S'headed'
p1677
S'bitcoinflirt'
p1678
S'linux'
p1679
S'improvement'
p1680
S'crobitcoin'
p1681
S'xpost'
p1682
S'acceptance'
p1683
S'resellers'
p1684
S'secret'
p1685
S'dropping'
p1686
S'armory'
p1687
S'meeting'
p1688
S'woke'
p1689
S'upstart'
p1690
S'precision'
p1691
S'southcarolina'
p1692
S'vang'
p1693
S'demand'
p1694
S'brittanynmcghee'
p1695
S'isracoin'
p1696
S'juanllanos'
p1697
S'bitcoinall'
p1698
S'evaluating'
p1699
S'launderer'
p1700
S'reddi'
p1701
S'laundered'
p1702
S'ready'
p1703
S'chase'
p1704
S'funny'
p1705
S'dnotes'
p1706
S'grand'
p1707
S'resources'
p1708
S'development'
p1709
S'walmart'
p1710
S'feds'
p1711
S'user'
p1712
S'yuan'
p1713
S'ftalphaville'
p1714
S'sparekeymn'
p1715
S'lower'
p1716
S'dailydot'
p1717
S'kraken'
p1718
S'obviously'
p1719
S'person'
p1720
S'ifpays'
p1721
S'randyknobloch'
p1722
S'retired'
p1723
S'monnaies'
p1724
S'education'
p1725
S'exclusively'
p1726
S'excited'
p1727
S'cornish'
p1728
S'customers'
p1729
S'marco'
p1730
S'theprice'
p1731
S'defies'
p1732
S'thedailybeast'
p1733
S'collect'
p1734
S'astonlss'
p1735
S'goodtrading'
p1736
S'popular'
p1737
S'google'
p1738
S'methods'
p1739
S'fucking'
p1740
S'tiffanykrumins'
p1741
S'exec'
p1742
S'retro'
p1743
S'madbitcoins'
p1744
S'withdrawals'
p1745
S'theheist'
p1746
S'nofees'
p1747
S'stolenin'
p1748
S'messaging'
p1749
S'unlincensed'
p1750
S'aires'
p1751
S'greatstuffers'
p1752
S'coverfor'
p1753
S'withis'
p1754
S'announc'
p1755
S'spending'
p1756
S'question'
p1757
S'plunge'
p1758
S'invite'
p1759
S'searching'
p1760
S'cloud'
p1761
S'larry'
p1762
S'upstartbusiness'
p1763
S'internetnews'
p1764
S'hopes'
p1765
S'vamxb'
p1766
S'collapses'
p1767
S'bitcoininvestmentwatch'
p1768
S'horned'
p1769
S'planet'
p1770
S'exploration'
p1771
S'happyhour'
p1772
S'storing'
p1773
S'chad'
p1774
S'single'
p1775
S'chat'
p1776
S'guidance'
p1777
S'fears'
p1778
S'intensifying'
p1779
S'income'
p1780
S'belgeseli'
p1781
S'explaining'
p1782
S'draw'
p1783
S'thefts'
p1784
S'allowing'
p1785
S'fisher'
p1786
S'vehicles'
p1787
S'bankers'
p1788
S'narrative'
p1789
S'ashton'
p1790
S'code'
p1791
S'evidence'
p1792
S'issued'
p1793
S'resistance'
p1794
S'steve'
p1795
S'send'
p1796
S'rtapple'
p1797
S'attoday'
p1798
S'miners'
p1799
S'putting'
p1800
S'telling'
p1801
S'daystay'
p1802
S'transmission'
p1803
S'michael'
p1804
S'pullback'
p1805
S'pockiouk'
p1806
S'booty'
p1807
S'rtchina'
p1808
S'texasholepoker'
p1809
S'bitsmash'
p1810
S'download'
p1811
S'click'
p1812
S'coinwebhost'
p1813
S'access'
p1814
S'paying'
p1815
S'waiting'
p1816
S'monedas'
p1817
S'tsla'
p1818
S'delivering'
p1819
S'mises'
p1820
S'nites'
p1821
S'technical'
p1822
S'involved'
p1823
S'casino'
p1824
S'fetch'
p1825
S'suggests'
p1826
S'named'
p1827
S'crazy'
p1828
S'names'
p1829
S'manipulate'
p1830
S'andreas'
p1831
S'lottery'
p1832
S'snoop'
p1833
S'remains'
p1834
S'illegal'
p1835
S'chocolates'
p1836
S'sesion'
p1837
S'upcoming'
p1838
S'train'
p1839
S'sharply'
p1840
S'timesofindia'
p1841
S'actual'
p1842
S'charity'
p1843
S'customer'
p1844
S'plateforme'
p1845
S'irreparably'
p1846
S'ride'
p1847
S'closing'
p1848
S'proof'
p1849
S'diceware'
p1850
S'pangsolstyle'
p1851
S'japa'
p1852
S'withnow'
p1853
S'thelas'
p1854
S'epictech'
p1855
S'instead'
p1856
S'chri'
p1857
S'blocks'
p1858
S'highs'
p1859
S'onbut'
p1860
S'tied'
p1861
S'scammer'
p1862
S'freedogecoin'
p1863
S'elshoshonee'
p1864
S'petesweeneypro'
p1865
S'reutersgmf'
p1866
S'holds'
p1867
S'move'
p1868
S'emmaemail'
p1869
S'looks'
p1870
S'bunch'
p1871
S'perfect'
p1872
S'winning'
p1873
S'thieves'
p1874
S'holiday'
p1875
S'techcrunch'
p1876
S'rsvp'
p1877
S'novawhite'
p1878
S'front'
p1879
S'somethingnew'
p1880
S'trad'
p1881
S'warned'
p1882
S'auditable'
p1883
S'economy'
p1884
S'shaking'
p1885
S'homeless'
p1886
S'beginner'
p1887
S'serbia'
p1888
S'remove'
p1889
S'popping'
p1890
S'druckenmiller'
p1891
S'frontier'
p1892
S'autopilot'
p1893
S'undo'
p1894
S'clarify'
p1895
S'approaches'
p1896
S'surely'
p1897
S'implode'
p1898
S'ipos'
p1899
S'mainland'
p1900
S'tleonardbc'
p1901
S'buenos'
p1902
S'gifting'
p1903
S'conversation'
p1904
S'yourfreeproxy'
p1905
S'transmitters'
p1906
S'succeeds'
p1907
S'owner'
p1908
S'franky'
p1909
S'sadly'
p1910
S'fascinating'
p1911
S'accent'
p1912
S'rigs'
p1913
S'perfectly'
p1914
S'enforcement'
p1915
S'shell'
p1916
S'stomach'
p1917
S'shorts'
p1918
S'lists'
p1919
S'depressing'
p1920
S'misspelt'
p1921
S'lamborghini'
p1922
S'sailingspecial'
p1923
S'sweden'
p1924
S'malpractice'
p1925
S'collecting'
p1926
S'wakes'
p1927
S'partnership'
p1928
S'apparently'
p1929
S'intresting'
p1930
S'silbert'
p1931
S'bitcoinfirehose'
p1932
S'issuing'
p1933
S'financials'
p1934
S'clarifies'
p1935
S'tonight'
p1936
S'unless'
p1937
S'visa'
p1938
S'intrinsic'
p1939
S'clampdown'
p1940
S'gather'
p1941
S'looked'
p1942
S'lots'
p1943
S'ripplelabs'
p1944
S'bagger'
p1945
S'anyway'
p1946
S'homeowner'
p1947
S'markkarpel'
p1948
S'planning'
p1949
S'manchester'
p1950
S'bedroom'
p1951
S'fear'
p1952
S'economist'
p1953
S'debate'
p1954
S'podcast'
p1955
S'hopeful'
p1956
S'jordiserto'
p1957
S'partially'
p1958
S'altcoins'
p1959
S'unbeatable'
p1960
S'dailydogecoin'
p1961
S'words'
p1962
S'gulch'
p1963
S'tactics'
p1964
S'taxed'
p1965
S'grab'
p1966
S'prepaid'
p1967
S'shedding'
p1968
S'acquired'
p1969
S'turbulent'
p1970
S'hosting'
p1971
S'unearth'
p1972
S'closes'
p1973
S'wire'
p1974
S'tend'
p1975
S'vittatoe'
p1976
S'horrible'
p1977
S'stories'
p1978
S'badger'
p1979
S'explosive'
p1980
S'ability'
p1981
S'importance'
p1982
S'antics'
p1983
S'monitor'
p1984
S'drug'
p1985
S'fulfilled'
p1986
S'april'
p1987
S'passing'
p1988
S'comment'
p1989
S'willsee'
p1990
S'hunters'
p1991
S'charts'
p1992
S'json'
p1993
S'willing'
p1994
S'jurvetson'
p1995
S'proposal'
p1996
S'valuations'
p1997
S'mywork'
p1998
S'graphics'
p1999
S'timdraper'
p2000
S'multi'
p2001
S'smartphones'
p2002
S'pbhmpubyrzuqfx'
p2003
S'ciphrex'
p2004
S'kriptokracije'
p2005
S'entmagazine'
p2006
S'respected'
p2007
S'claimed'
p2008
S'bucks'
p2009
S'butvalue'
p2010
S'quickbooks'
p2011
S'juan'
p2012
S'strange'
p2013
S'party'
p2014
S'bitcoinfor'
p2015
S'spree'
p2016
S'dressed'
p2017
S'position'
p2018
S'overhauling'
p2019
S'nakomoto'
p2020
S'perboom'
p2021
S'gtcost'
p2022
S'rtnews'
p2023
S'gyft'
p2024
S'pressat'
p2025
S'increases'
p2026
S'five'
p2027
S'helpful'
p2028
S'january'
p2029
S'wonders'
p2030
S'findfollowtweet'
p2031
S'thief'
p2032
S'kinds'
p2033
S'dinars'
p2034
S'mines'
p2035
S'salaries'
p2036
S'mined'
p2037
S'debuts'
p2038
S'astounding'
p2039
S'monetary'
p2040
S'techfreedom'
p2041
S'banksters'
p2042
S'panel'
p2043
S'rare'
p2044
S'column'
p2045
S'nakamato'
p2046
S'receivingthreats'
p2047
S'swear'
p2048
S'afterall'
p2049
S'adopters'
p2050
S'previously'
p2051
S'submits'
p2052
S'mybtcninja'
p2053
S'charities'
p2054
S'yorkers'
p2055
S'housing'
p2056
S'arilefwrthehweu'
p2057
S'dcbitcoin'
p2058
S'flygary'
p2059
S'delivery'
p2060
S'reminds'
p2061
S'regardingin'
p2062
S'entered'
p2063
S'feedly'
p2064
S'wise'
p2065
S'bitgoinc'
p2066
S'flip'
p2067
S'distract'
p2068
S'convince'
p2069
S'limit'
p2070
S'distribution'
p2071
S'minutes'
p2072
S'block'
p2073
S'marketplace'
p2074
S'thebitcoinimist'
p2075
S'panamaticker'
p2076
S'twist'
p2077
S'cryptocurreny'
p2078
S'ninasenicar'
p2079
S'lately'
p2080
S'book'
p2081
S'sick'
p2082
S'repeat'
p2083
S'monday'
p2084
S'june'
p2085
S'stay'
p2086
S'chance'
p2087
S'stab'
p2088
S'kinda'
p2089
S'basement'
p2090
S'inspiration'
p2091
S'extort'
p2092
S'incommerce'
p2093
S'hbsctkq'
p2094
S'macchiato'
p2095
S'expands'
p2096
tp2097
.